target datalayout = "e-m:e-p270:32:32-p271:32:32-p272:64:64-i64:64-i128:128-f80:128-n8:16:32:64-S128"
target triple = "x86_64-pc-linux-gnu"

; Function Attrs: mustprogress nounwind uwtable
define void @_ZN19OpenColorIO_v2_5dev15MatrixTransform8IdentityEPdS1_(ptr noundef %0, ptr noundef %1) #8 align 2 {
  %3 = alloca ptr, align 8
  %4 = alloca ptr, align 8
  store ptr %0, ptr %3, align 8, !tbaa !70
  store ptr %1, ptr %4, align 8, !tbaa !70
  %5 = load ptr, ptr %3, align 8, !tbaa !70
  %6 = icmp ne ptr %5, null
  br i1 %6, label %7, label %17

7:                                                ; preds = %2
  %8 = load ptr, ptr %3, align 8, !tbaa !70
  call void @llvm.memset.p0.i64(ptr align 8 %8, i8 0, i64 128, i1 false)
  %9 = load ptr, ptr %3, align 8, !tbaa !70
  %10 = getelementptr inbounds double, ptr %9, i64 0
  store double 1.000000e+00, ptr %10, align 8, !tbaa !75
  %11 = load ptr, ptr %3, align 8, !tbaa !70
  %12 = getelementptr inbounds double, ptr %11, i64 5
  store double 1.000000e+00, ptr %12, align 8, !tbaa !75
  %13 = load ptr, ptr %3, align 8, !tbaa !70
  %14 = getelementptr inbounds double, ptr %13, i64 10
  store double 1.000000e+00, ptr %14, align 8, !tbaa !75
  %15 = load ptr, ptr %3, align 8, !tbaa !70
  %16 = getelementptr inbounds double, ptr %15, i64 15
  store double 1.000000e+00, ptr %16, align 8, !tbaa !75
  br label %17

17:                                               ; preds = %7, %2
  %18 = load ptr, ptr %4, align 8, !tbaa !70
  %19 = icmp ne ptr %18, null
  br i1 %19, label %20, label %29

20:                                               ; preds = %17
  %21 = load ptr, ptr %4, align 8, !tbaa !70
  %22 = getelementptr inbounds double, ptr %21, i64 0
  store double 0.000000e+00, ptr %22, align 8, !tbaa !75
  %23 = load ptr, ptr %4, align 8, !tbaa !70
  %24 = getelementptr inbounds double, ptr %23, i64 1
  store double 0.000000e+00, ptr %24, align 8, !tbaa !75
  %25 = load ptr, ptr %4, align 8, !tbaa !70
  %26 = getelementptr inbounds double, ptr %25, i64 2
  store double 0.000000e+00, ptr %26, align 8, !tbaa !75
  %27 = load ptr, ptr %4, align 8, !tbaa !70
  %28 = getelementptr inbounds double, ptr %27, i64 3
  store double 0.000000e+00, ptr %28, align 8, !tbaa !75
  br label %29

29:                                               ; preds = %20, %17
  ret void
}