; Function Attrs: mustprogress nofree norecurse nosync nounwind willreturn memory(argmem: write) uwtable
define void @_ZN19OpenColorIO_v2_5dev15MatrixTransform8IdentityEPdS1_(ptr noundef writeonly %0, ptr noundef writeonly %1) local_unnamed_addr #15 align 2 {
  %.not = icmp eq ptr %0, null
  br i1 %.not, label %8, label %3

3:                                                ; preds = %2
  %4 = getelementptr inbounds nuw i8, ptr %0, i64 8
  tail call void @llvm.memset.p0.i64(ptr noundef nonnull align 8 dereferenceable(112) %4, i8 0, i64 112, i1 false)
  store double 1.000000e+00, ptr %0, align 8, !tbaa !67
  %5 = getelementptr inbounds nuw i8, ptr %0, i64 40
  store double 1.000000e+00, ptr %5, align 8, !tbaa !67
  %6 = getelementptr inbounds nuw i8, ptr %0, i64 80
  store double 1.000000e+00, ptr %6, align 8, !tbaa !67
  %7 = getelementptr inbounds nuw i8, ptr %0, i64 120
  store double 1.000000e+00, ptr %7, align 8, !tbaa !67
  br label %8

8:                                                ; preds = %3, %2
  %.not12 = icmp eq ptr %1, null
  br i1 %.not12, label %10, label %9

9:                                                ; preds = %8
  tail call void @llvm.memset.p0.i64(ptr noundef nonnull align 8 dereferenceable(32) %1, i8 0, i64 32, i1 false)
  br label %10

10:                                               ; preds = %9, %8
  ret void
}